; Function Attrs: mustprogress nounwind uwtable
define internal void @"_ZN2rc10ShrinkableINSt7__cxx1112basic_stringIcSt11char_traitsIcESaIcEEEE14ShrinkableImplINS_10shrinkable6detail13MapShrinkableIN3nix13StorePathNameEZNS_9ArbitraryINSC_11OutputsSpecEvE9arbitraryEvE3$_0EEED2Ev"(ptr nocapture noundef nonnull align 8 dereferenceable(32) %0) unnamed_addr #4 align 2 personality ptr @__gxx_personality_v0 {
  store ptr getelementptr inbounds ({ [8 x ptr] }, ptr @"_ZTVN2rc10ShrinkableINSt7__cxx1112basic_stringIcSt11char_traitsIcESaIcEEEE14ShrinkableImplINS_10shrinkable6detail13MapShrinkableIN3nix13StorePathNameEZNS_9ArbitraryINSC_11OutputsSpecEvE9arbitraryEvE3$_0EEEE", i64 0, i32 0, i64 2), ptr %0, align 8
  %2 = getelementptr inbounds i8, ptr %0, i64 16
  %.val = load ptr, ptr %2, align 8
  %.not.i.i = icmp eq ptr %.val, null
  br i1 %.not.i.i, label %"_ZN2rc10shrinkable6detail13MapShrinkableIN3nix13StorePathNameEZNS_9ArbitraryINS3_11OutputsSpecEvE9arbitraryEvE3$_0ED2Ev.exit", label %3

3:                                                ; preds = %1
  %4 = load ptr, ptr %.val, align 8
  %5 = getelementptr inbounds i8, ptr %4, i64 24
  %6 = load ptr, ptr %5, align 8
  invoke void %6(ptr noundef nonnull align 8 dereferenceable(8) %.val)
          to label %"_ZN2rc10shrinkable6detail13MapShrinkableIN3nix13StorePathNameEZNS_9ArbitraryINS3_11OutputsSpecEvE9arbitraryEvE3$_0ED2Ev.exit" unwind label %7

7:                                                ; preds = %3
  %8 = landingpad { ptr, i32 }
          catch ptr null
  %9 = extractvalue { ptr, i32 } %8, 0
  tail call void @__clang_call_terminate(ptr %9) #24
  unreachable

"_ZN2rc10shrinkable6detail13MapShrinkableIN3nix13StorePathNameEZNS_9ArbitraryINS3_11OutputsSpecEvE9arbitraryEvE3$_0ED2Ev.exit": ; preds = %1, %3
  ret void
}